target datalayout = "e-m:e-p270:32:32-p271:32:32-p272:64:64-i64:64-i128:128-f80:128-n8:16:32:64-S128"
target triple = "x86_64-pc-linux-gnu"

%struct.UCaseProps = type { ptr, ptr, ptr, ptr, %struct.UTrie2, [4 x i8] }
%struct.UTrie2 = type { ptr, ptr, ptr, i32, i32, i16, i16, i32, i32, i32, i32, ptr, i32, i8, i8, i16, ptr }

; Function Attrs: mustprogress nounwind uwtable
define i32 @ucase_getTypeOrIgnorable_77(i32 noundef %0) #3 {
  %2 = alloca i32, align 4
  %3 = alloca i16, align 2
  store i32 %0, ptr %2, align 4, !tbaa !11
  call void @llvm.lifetime.start.p0(i64 2, ptr %3) #5
  %4 = load ptr, ptr getelementptr inbounds nuw (%struct.UCaseProps, ptr @_ZL21ucase_props_singleton, i32 0, i32 4), align 8, !tbaa !19
  %5 = load i32, ptr %2, align 4, !tbaa !11
  %6 = icmp ult i32 %5, 55296
  br i1 %6, label %7, label %20

7:                                                ; preds = %1
  %8 = load ptr, ptr getelementptr inbounds nuw (%struct.UCaseProps, ptr @_ZL21ucase_props_singleton, i32 0, i32 4), align 8, !tbaa !19
  %9 = load i32, ptr %2, align 4, !tbaa !11
  %10 = ashr i32 %9, 5
  %11 = add nsw i32 0, %10
  %12 = sext i32 %11 to i64
  %13 = getelementptr inbounds i16, ptr %8, i64 %12
  %14 = load i16, ptr %13, align 2, !tbaa !25
  %15 = zext i16 %14 to i32
  %16 = shl i32 %15, 2
  %17 = load i32, ptr %2, align 4, !tbaa !11
  %18 = and i32 %17, 31
  %19 = add nsw i32 %16, %18
  br label %75

20:                                               ; preds = %1
  %21 = load i32, ptr %2, align 4, !tbaa !11
  %22 = icmp ule i32 %21, 65535
  br i1 %22, label %23, label %39

23:                                               ; preds = %20
  %24 = load ptr, ptr getelementptr inbounds nuw (%struct.UCaseProps, ptr @_ZL21ucase_props_singleton, i32 0, i32 4), align 8, !tbaa !19
  %25 = load i32, ptr %2, align 4, !tbaa !11
  %26 = icmp sle i32 %25, 56319
  %27 = select i1 %26, i32 320, i32 0
  %28 = load i32, ptr %2, align 4, !tbaa !11
  %29 = ashr i32 %28, 5
  %30 = add nsw i32 %27, %29
  %31 = sext i32 %30 to i64
  %32 = getelementptr inbounds i16, ptr %24, i64 %31
  %33 = load i16, ptr %32, align 2, !tbaa !25
  %34 = zext i16 %33 to i32
  %35 = shl i32 %34, 2
  %36 = load i32, ptr %2, align 4, !tbaa !11
  %37 = and i32 %36, 31
  %38 = add nsw i32 %35, %37
  br label %73

39:                                               ; preds = %20
  %40 = load i32, ptr %2, align 4, !tbaa !11
  %41 = icmp ugt i32 %40, 1114111
  br i1 %41, label %42, label %43

42:                                               ; preds = %39
  br label %71

43:                                               ; preds = %39
  %44 = load i32, ptr %2, align 4, !tbaa !11
  %45 = icmp sge i32 %44, 919552
  br i1 %45, label %46, label %47

46:                                               ; preds = %43
  br label %69

47:                                               ; preds = %43
  %48 = load ptr, ptr getelementptr inbounds nuw (%struct.UCaseProps, ptr @_ZL21ucase_props_singleton, i32 0, i32 4), align 8, !tbaa !19
  %49 = load ptr, ptr getelementptr inbounds nuw (%struct.UCaseProps, ptr @_ZL21ucase_props_singleton, i32 0, i32 4), align 8, !tbaa !19
  %50 = load i32, ptr %2, align 4, !tbaa !11
  %51 = ashr i32 %50, 11
  %52 = add nsw i32 2080, %51
  %53 = sext i32 %52 to i64
  %54 = getelementptr inbounds i16, ptr %49, i64 %53
  %55 = load i16, ptr %54, align 2, !tbaa !25
  %56 = zext i16 %55 to i32
  %57 = load i32, ptr %2, align 4, !tbaa !11
  %58 = ashr i32 %57, 5
  %59 = and i32 %58, 63
  %60 = add nsw i32 %56, %59
  %61 = sext i32 %60 to i64
  %62 = getelementptr inbounds i16, ptr %48, i64 %61
  %63 = load i16, ptr %62, align 2, !tbaa !25
  %64 = zext i16 %63 to i32
  %65 = shl i32 %64, 2
  %66 = load i32, ptr %2, align 4, !tbaa !11
  %67 = and i32 %66, 31
  %68 = add nsw i32 %65, %67
  br label %69

69:                                               ; preds = %47, %46
  %70 = phi i32 [ 13368, %46 ], [ %68, %47 ]
  br label %71

71:                                               ; preds = %69, %42
  %72 = phi i32 [ 3596, %42 ], [ %70, %69 ]
  br label %73

73:                                               ; preds = %71, %23
  %74 = phi i32 [ %38, %23 ], [ %72, %71 ]
  br label %75

75:                                               ; preds = %73, %7
  %76 = phi i32 [ %19, %7 ], [ %74, %73 ]
  %77 = sext i32 %76 to i64
  %78 = getelementptr inbounds i16, ptr %4, i64 %77
  %79 = load i16, ptr %78, align 2, !tbaa !25
  store i16 %79, ptr %3, align 2, !tbaa !25
  %80 = load i16, ptr %3, align 2, !tbaa !25
  %81 = zext i16 %80 to i32
  %82 = and i32 %81, 7
  call void @llvm.lifetime.end.p0(i64 2, ptr %3) #5
  ret i32 %82
}

; Function Attrs: mustprogress uwtable
define internal noundef signext i8 @_ZL23isFollowedByCasedLetterPFiPvaES_a(ptr noundef %0, ptr noundef %1, i8 noundef signext %2) #0 {
  %4 = alloca i8, align 1
  %5 = alloca ptr, align 8
  %6 = alloca ptr, align 8
  %7 = alloca i8, align 1
  %8 = alloca i32, align 4
  %9 = alloca i32, align 4
  %10 = alloca i32, align 4
  store ptr %0, ptr %5, align 8, !tbaa !8
  store ptr %1, ptr %6, align 8, !tbaa !8
  store i8 %2, ptr %7, align 1, !tbaa !28
  call void @llvm.lifetime.start.p0(i64 4, ptr %8) #5
  %11 = load ptr, ptr %5, align 8, !tbaa !8
  %12 = icmp eq ptr %11, null
  br i1 %12, label %13, label %14

13:                                               ; preds = %3
  store i8 0, ptr %4, align 1
  store i32 1, ptr %9, align 4
  br label %39

14:                                               ; preds = %3
  br label %15

15:                                               ; preds = %37, %14
  %16 = load ptr, ptr %5, align 8, !tbaa !8
  %17 = load ptr, ptr %6, align 8, !tbaa !8
  %18 = load i8, ptr %7, align 1, !tbaa !28
  %19 = call noundef i32 %16(ptr noundef %17, i8 noundef signext %18)
  store i32 %19, ptr %8, align 4, !tbaa !11
  %20 = icmp sge i32 %19, 0
  br i1 %20, label %21, label %38

21:                                               ; preds = %15
  call void @llvm.lifetime.start.p0(i64 4, ptr %10) #5
  %22 = load i32, ptr %8, align 4, !tbaa !11
  %23 = call i32 @ucase_getTypeOrIgnorable_77(i32 noundef %22)
  store i32 %23, ptr %10, align 4, !tbaa !11
  %24 = load i32, ptr %10, align 4, !tbaa !11
  %25 = and i32 %24, 4
  %26 = icmp ne i32 %25, 0
  br i1 %26, label %27, label %28

27:                                               ; preds = %21
  br label %33

28:                                               ; preds = %21
  %29 = load i32, ptr %10, align 4, !tbaa !11
  %30 = icmp ne i32 %29, 0
  br i1 %30, label %31, label %32

31:                                               ; preds = %28
  store i8 1, ptr %4, align 1
  store i32 1, ptr %9, align 4
  br label %34

32:                                               ; preds = %28
  store i8 0, ptr %4, align 1
  store i32 1, ptr %9, align 4
  br label %34

33:                                               ; preds = %27
  store i32 0, ptr %9, align 4
  br label %34

34:                                               ; preds = %33, %32, %31
  call void @llvm.lifetime.end.p0(i64 4, ptr %10) #5
  %35 = load i32, ptr %9, align 4
  switch i32 %35, label %39 [
    i32 0, label %36
  ]

36:                                               ; preds = %34
  br label %37

37:                                               ; preds = %36
  store i8 0, ptr %7, align 1, !tbaa !28
  br label %15, !llvm.loop !68

38:                                               ; preds = %15
  store i8 0, ptr %4, align 1
  store i32 1, ptr %9, align 4
  br label %39

39:                                               ; preds = %38, %34, %13
  call void @llvm.lifetime.end.p0(i64 4, ptr %8) #5
  %40 = load i8, ptr %4, align 1
  ret i8 %40
}