; Function Attrs: mustprogress uwtable
define internal fastcc noundef signext range(i8 0, 2) i8 @_ZL23isFollowedByCasedLetterPFiPvaES_a(ptr noundef readonly %0, ptr noundef %1, i8 noundef signext range(i8 -1, 2) %2) unnamed_addr #0 {
  %4 = icmp eq ptr %0, null
  br i1 %4, label %.loopexit, label %.preheader

.preheader:                                       ; preds = %3, %ucase_getTypeOrIgnorable_77.exit
  %.09 = phi i8 [ 0, %ucase_getTypeOrIgnorable_77.exit ], [ %2, %3 ]
  %5 = tail call noundef i32 %0(ptr noundef %1, i8 noundef signext %.09)
  %6 = icmp sgt i32 %5, -1
  br i1 %6, label %7, label %.loopexit

7:                                                ; preds = %.preheader
  %8 = icmp samesign ult i32 %5, 55296
  br i1 %8, label %9, label %11

9:                                                ; preds = %7
  %10 = lshr i32 %5, 5
  br label %.sink.split.i

11:                                               ; preds = %7
  %12 = icmp samesign ult i32 %5, 65536
  br i1 %12, label %13, label %18

13:                                               ; preds = %11
  %14 = icmp samesign ult i32 %5, 56320
  %15 = select i1 %14, i32 320, i32 0
  %16 = lshr i32 %5, 5
  %17 = add nuw nsw i32 %15, %16
  br label %.sink.split.i

18:                                               ; preds = %11
  %19 = icmp samesign ugt i32 %5, 1114111
  br i1 %19, label %ucase_getTypeOrIgnorable_77.exit, label %20

20:                                               ; preds = %18
  %21 = icmp samesign ugt i32 %5, 919551
  br i1 %21, label %ucase_getTypeOrIgnorable_77.exit, label %22

22:                                               ; preds = %20
  %23 = lshr i32 %5, 11
  %24 = zext nneg i32 %23 to i64
  %gep = getelementptr inbounds nuw i16, ptr getelementptr inbounds nuw (i8, ptr @_ZL21ucase_props_trieIndex, i64 4160), i64 %24
  %25 = load i16, ptr %gep, align 2, !tbaa !14
  %26 = zext i16 %25 to i32
  %27 = lshr i32 %5, 5
  %28 = and i32 %27, 63
  %29 = add nuw nsw i32 %28, %26
  br label %.sink.split.i

.sink.split.i:                                    ; preds = %22, %13, %9
  %.sink16.i = phi i32 [ %17, %13 ], [ %29, %22 ], [ %10, %9 ]
  %30 = zext nneg i32 %.sink16.i to i64
  %31 = getelementptr inbounds nuw i16, ptr @_ZL21ucase_props_trieIndex, i64 %30
  %32 = load i16, ptr %31, align 2, !tbaa !14
  %33 = zext i16 %32 to i32
  %34 = shl nuw nsw i32 %33, 2
  %35 = and i32 %5, 31
  %36 = add nuw nsw i32 %34, %35
  %37 = zext nneg i32 %36 to i64
  br label %ucase_getTypeOrIgnorable_77.exit

ucase_getTypeOrIgnorable_77.exit:                 ; preds = %18, %20, %.sink.split.i
  %38 = phi i64 [ 3596, %18 ], [ 13368, %20 ], [ %37, %.sink.split.i ]
  %39 = getelementptr inbounds nuw i16, ptr @_ZL21ucase_props_trieIndex, i64 %38
  %40 = load i16, ptr %39, align 2, !tbaa !14
  %41 = and i16 %40, 7
  %.not = icmp samesign ugt i16 %41, 3
  br i1 %.not, label %.preheader, label %.loopexit.split.loop.exit, !llvm.loop !44

.loopexit.split.loop.exit:                        ; preds = %ucase_getTypeOrIgnorable_77.exit
  %.not11.le = icmp ne i16 %41, 0
  %..le = zext i1 %.not11.le to i8
  br label %.loopexit

.loopexit:                                        ; preds = %.preheader, %.loopexit.split.loop.exit, %3
  %.0 = phi i8 [ 0, %3 ], [ %..le, %.loopexit.split.loop.exit ], [ 0, %.preheader ]
  ret i8 %.0
}